target datalayout = "e-m:e-p270:32:32-p271:32:32-p272:64:64-i64:64-i128:128-f80:128-n8:16:32:64-S128"
target triple = "x86_64-pc-linux-gnu"

%class.QString = type { %struct.QArrayDataPointer }
%struct.QArrayDataPointer = type { ptr, ptr, i64 }
%struct.recent_settings_tag = type { i32, i32, i32, i32, i32, i32, i32, i32, i32, i32, i32, i32, i32, i32, i32, i32, i32, i32, i32, i32, i32, i32, i32, i32, i32, i32, i32, i32, i32, i32, i32, i32, i32, i32, i32, i32, ptr, ptr, ptr, i32, i32, ptr, ptr, ptr, ptr, ptr, ptr, i32, ptr, ptr, ptr }
%class.LteRlcStatisticsDialog = type <{ %class.TapParameterDialog, ptr, ptr, ptr, ptr, ptr, %class.QString, ptr, i32, [4 x i8] }>
%class.TapParameterDialog = type { %class.WiresharkDialog.base, ptr, %class.QMenu, %class.QList.1, i32, ptr }
%class.WiresharkDialog.base = type <{ %class.GeometryStateDialog, ptr, i8, [7 x i8], %class.QString, %class.QList, i32, i8 }>
%class.GeometryStateDialog = type { %class.QDialog, %class.QString }
%class.QDialog = type { %class.QWidget }
%class.QWidget = type { %class.QObject, %class.QPaintDevice.base, ptr }
%class.QObject = type { ptr, %class.QScopedPointer }
%class.QScopedPointer = type { ptr }
%class.QPaintDevice.base = type <{ ptr, i16 }>
%class.QList = type { %struct.QArrayDataPointer.0 }
%struct.QArrayDataPointer.0 = type { ptr, ptr, i64 }
%class.QMenu = type { %class.QWidget }
%class.QList.1 = type { %struct.QArrayDataPointer.4 }
%struct.QArrayDataPointer.4 = type { ptr, ptr, i64 }
%class.QList.13 = type { %struct.QArrayDataPointer.16 }
%struct.QArrayDataPointer.16 = type { ptr, ptr, i64 }
%class.QFlags = type { i32 }
%class.QFlag = type { i32 }
%struct.rlc_3gpp_tap_info = type { i8, i8, i8, i8, i16, i16, i16, i16, i8, %struct.nstime_t, i8, i32, i32, i8, i8, i32, i16, [512 x i32], i16 }
%struct.nstime_t = type { i64, i32 }
%class.QTreeWidgetItem = type <{ ptr, i32, [4 x i8], %class.QList.9, ptr, ptr, ptr, %class.QList.13, %class.QFlags.17, [4 x i8] }>
%class.QList.9 = type { %struct.QArrayDataPointer.12 }
%struct.QArrayDataPointer.12 = type { ptr, ptr, i64 }
%class.QFlags.17 = type { i32 }
%class.RlcUeTreeWidgetItem = type { %class.QTreeWidgetItem.base, i8, i32, %struct.rlc_ue_stats, ptr, [2 x ptr], [32 x ptr] }
%class.QTreeWidgetItem.base = type <{ ptr, i32, [4 x i8], %class.QList.9, ptr, ptr, ptr, %class.QList.13, %class.QFlags.17 }>
%struct.rlc_ue_stats = type { i32, i32, %struct.nstime_t, %struct.nstime_t, i32, i32, i32, i32, i32, %struct.nstime_t, %struct.nstime_t, i32, i32, i32 }
%class.QVariant = type { %"struct.QVariant::Private" }
%"struct.QVariant::Private" = type { %union.anon, i64 }
%union.anon = type { ptr, [16 x i8] }

@recent = external global %struct.recent_settings_tag, align 8

; Function Attrs: mustprogress nounwind uwtable
define linkonce_odr noundef i32 @_ZNK5QFlagcvjEv(ptr noundef nonnull align 4 dereferenceable(4) %0) #2 comdat align 2 {
  %2 = alloca ptr, align 8
  store ptr %0, ptr %2, align 8
  %3 = load ptr, ptr %2, align 8
  %4 = getelementptr inbounds %class.QFlag, ptr %3, i32 0, i32 0
  %5 = load i32, ptr %4, align 4
  ret i32 %5
}

; Function Attrs: mustprogress uwtable
define linkonce_odr void @_ZN15QTreeWidgetItem16setTextAlignmentEii(ptr noundef nonnull align 8 dereferenceable(92) %0, i32 noundef %1, i32 noundef %2) #1 comdat align 2 personality ptr @__gxx_personality_v0 {
  %4 = alloca ptr, align 8
  %5 = alloca i32, align 4
  %6 = alloca i32, align 4
  %7 = alloca %class.QVariant, align 8
  %8 = alloca ptr, align 8
  %9 = alloca i32, align 4
  store ptr %0, ptr %4, align 8
  store i32 %1, ptr %5, align 4
  store i32 %2, ptr %6, align 4
  %10 = load ptr, ptr %4, align 8
  %11 = load i32, ptr %5, align 4
  %12 = load i32, ptr %6, align 4
  call void @_ZN8QVariantC1Ei(ptr noundef nonnull align 8 dereferenceable(32) %7, i32 noundef %12)
  %13 = load ptr, ptr %10, align 8
  %14 = getelementptr inbounds ptr, ptr %13, i64 4
  %15 = load ptr, ptr %14, align 8
  invoke void %15(ptr noundef nonnull align 8 dereferenceable(92) %10, i32 noundef %11, i32 noundef 7, ptr noundef nonnull align 8 dereferenceable(32) %7)
          to label %16 unwind label %17

16:                                               ; preds = %3
  call void @_ZN8QVariantD1Ev(ptr noundef nonnull align 8 dereferenceable(32) %7) #3
  ret void

17:                                               ; preds = %3
  %18 = landingpad { ptr, i32 }
          cleanup
  %19 = extractvalue { ptr, i32 } %18, 0
  store ptr %19, ptr %8, align 8
  %20 = extractvalue { ptr, i32 } %18, 1
  store i32 %20, ptr %9, align 4
  call void @_ZN8QVariantD1Ev(ptr noundef nonnull align 8 dereferenceable(32) %7) #3
  br label %21

21:                                               ; preds = %17
  %22 = load ptr, ptr %8, align 8
  %23 = load i32, ptr %9, align 4
  %24 = insertvalue { ptr, i32 } poison, ptr %22, 0
  %25 = insertvalue { ptr, i32 } %24, i32 %23, 1
  resume { ptr, i32 } %25
}

; Function Attrs: mustprogress nounwind uwtable
define linkonce_odr noundef i32 @_ZNK6QFlagsIN2Qt13AlignmentFlagEEcvjEv(ptr noundef nonnull align 4 dereferenceable(4) %0) #2 comdat align 2 {
  %2 = alloca ptr, align 8
  store ptr %0, ptr %2, align 8
  %3 = load ptr, ptr %2, align 8
  %4 = getelementptr inbounds %class.QFlags, ptr %3, i32 0, i32 0
  %5 = load i32, ptr %4, align 4
  ret i32 %5
}

; Function Attrs: mustprogress nounwind uwtable
define linkonce_odr void @_ZN6QFlagsIN2Qt13AlignmentFlagEEC2E5QFlag(ptr noundef nonnull align 4 dereferenceable(4) %0, i32 %1) unnamed_addr #2 comdat align 2 {
  %3 = alloca %class.QFlag, align 4
  %4 = alloca ptr, align 8
  %5 = getelementptr inbounds %class.QFlag, ptr %3, i32 0, i32 0
  store i32 %1, ptr %5, align 4
  store ptr %0, ptr %4, align 8
  %6 = load ptr, ptr %4, align 8
  %7 = getelementptr inbounds %class.QFlags, ptr %6, i32 0, i32 0
  %8 = call noundef i32 @_ZNK5QFlagcvjEv(ptr noundef nonnull align 4 dereferenceable(4) %3) #3
  store i32 %8, ptr %7, align 4
  ret void
}

; Function Attrs: mustprogress nounwind uwtable
define linkonce_odr void @_ZN5QFlagC2Ei(ptr noundef nonnull align 4 dereferenceable(4) %0, i32 noundef %1) unnamed_addr #2 comdat align 2 {
  %3 = alloca ptr, align 8
  %4 = alloca i32, align 4
  store ptr %0, ptr %3, align 8
  store i32 %1, ptr %4, align 4
  %5 = load ptr, ptr %3, align 8
  %6 = getelementptr inbounds %class.QFlag, ptr %5, i32 0, i32 0
  %7 = load i32, ptr %4, align 4
  store i32 %7, ptr %6, align 4
  ret void
}

; Function Attrs: mustprogress uwtable
define linkonce_odr noundef i32 @_ZNK15QTreeWidgetItem13textAlignmentEi(ptr noundef nonnull align 8 dereferenceable(92) %0, i32 noundef %1) #1 comdat align 2 personality ptr @__gxx_personality_v0 {
  %3 = alloca ptr, align 8
  %4 = alloca i32, align 4
  %5 = alloca %class.QVariant, align 8
  %6 = alloca ptr, align 8
  %7 = alloca i32, align 4
  store ptr %0, ptr %3, align 8
  store i32 %1, ptr %4, align 4
  %8 = load ptr, ptr %3, align 8
  %9 = load i32, ptr %4, align 4
  %10 = load ptr, ptr %8, align 8
  %11 = getelementptr inbounds ptr, ptr %10, i64 3
  %12 = load ptr, ptr %11, align 8
  call void %12(ptr dead_on_unwind writable sret(%class.QVariant) align 8 %5, ptr noundef nonnull align 8 dereferenceable(92) %8, i32 noundef %9, i32 noundef 7)
  %13 = invoke noundef i32 @_ZNK8QVariant5toIntEPb(ptr noundef nonnull align 8 dereferenceable(32) %5, ptr noundef null)
          to label %14 unwind label %15

14:                                               ; preds = %2
  call void @_ZN8QVariantD1Ev(ptr noundef nonnull align 8 dereferenceable(32) %5) #3
  ret i32 %13

15:                                               ; preds = %2
  %16 = landingpad { ptr, i32 }
          cleanup
  %17 = extractvalue { ptr, i32 } %16, 0
  store ptr %17, ptr %6, align 8
  %18 = extractvalue { ptr, i32 } %16, 1
  store i32 %18, ptr %7, align 4
  call void @_ZN8QVariantD1Ev(ptr noundef nonnull align 8 dereferenceable(32) %5) #3
  br label %19

19:                                               ; preds = %15
  %20 = load ptr, ptr %6, align 8
  %21 = load i32, ptr %7, align 4
  %22 = insertvalue { ptr, i32 } poison, ptr %20, 0
  %23 = insertvalue { ptr, i32 } %22, i32 %21, 1
  resume { ptr, i32 } %23
}

; Function Attrs: mustprogress nounwind uwtable
define linkonce_odr noundef zeroext i1 @_ZN19RlcUeTreeWidgetItem7isMatchEPK17rlc_3gpp_tap_info(ptr noundef nonnull align 8 dereferenceable(496) %0, ptr noundef %1) #2 comdat align 2 {
  %3 = alloca ptr, align 8
  %4 = alloca ptr, align 8
  store ptr %0, ptr %3, align 8
  store ptr %1, ptr %4, align 8
  %5 = load ptr, ptr %3, align 8
  %6 = getelementptr inbounds %class.RlcUeTreeWidgetItem, ptr %5, i32 0, i32 1
  %7 = load i8, ptr %6, align 4
  %8 = zext i8 %7 to i32
  %9 = load ptr, ptr %4, align 8
  %10 = getelementptr inbounds %struct.rlc_3gpp_tap_info, ptr %9, i32 0, i32 0
  %11 = load i8, ptr %10, align 8
  %12 = zext i8 %11 to i32
  %13 = icmp eq i32 %8, %12
  br i1 %13, label %14, label %22

14:                                               ; preds = %2
  %15 = getelementptr inbounds %class.RlcUeTreeWidgetItem, ptr %5, i32 0, i32 2
  %16 = load i32, ptr %15, align 8
  %17 = load ptr, ptr %4, align 8
  %18 = getelementptr inbounds %struct.rlc_3gpp_tap_info, ptr %17, i32 0, i32 4
  %19 = load i16, ptr %18, align 4
  %20 = zext i16 %19 to i32
  %21 = icmp eq i32 %16, %20
  br label %22

22:                                               ; preds = %14, %2
  %23 = phi i1 [ false, %2 ], [ %21, %14 ]
  ret i1 %23
}

; Function Attrs: mustprogress nounwind uwtable
define linkonce_odr noundef i32 @_ZNK15QTreeWidgetItem4typeEv(ptr noundef nonnull align 8 dereferenceable(92) %0) #2 comdat align 2 {
  %2 = alloca ptr, align 8
  store ptr %0, ptr %2, align 8
  %3 = load ptr, ptr %2, align 8
  %4 = getelementptr inbounds %class.QTreeWidgetItem, ptr %3, i32 0, i32 1
  %5 = load i32, ptr %4, align 8
  ret i32 %5
}

; Function Attrs: mustprogress nounwind uwtable
define linkonce_odr void @_ZN22LteRlcStatisticsDialog13incFrameCountEv(ptr noundef nonnull align 8 dereferenceable(300) %0) #2 comdat align 2 {
  %2 = alloca ptr, align 8
  store ptr %0, ptr %2, align 8
  %3 = load ptr, ptr %2, align 8
  %4 = getelementptr inbounds %class.LteRlcStatisticsDialog, ptr %3, i32 0, i32 8
  %5 = load i32, ptr %4, align 8
  %6 = add i32 %5, 1
  store i32 %6, ptr %4, align 8
  ret void
}

; Function Attrs: mustprogress uwtable
define noundef i32 @_ZN22LteRlcStatisticsDialog9tapPacketEPvP12_packet_infoP12epan_dissectPKvj(ptr noundef %0, ptr noundef %1, ptr noundef %2, ptr noundef %3, i32 noundef %4) #1 align 2 personality ptr @__gxx_personality_v0 {
  %6 = alloca i32, align 4
  %7 = alloca ptr, align 8
  %8 = alloca ptr, align 8
  %9 = alloca ptr, align 8
  %10 = alloca ptr, align 8
  %11 = alloca i32, align 4
  %12 = alloca ptr, align 8
  %13 = alloca ptr, align 8
  %14 = alloca ptr, align 8
  %15 = alloca i32, align 4
  %16 = alloca ptr, align 8
  %17 = alloca ptr, align 8
  %18 = alloca ptr, align 8
  %19 = alloca i32, align 4
  %20 = alloca i32, align 4
  %21 = alloca %class.QFlags, align 4
  %22 = alloca %class.QFlag, align 4
  store ptr %0, ptr %7, align 8
  store ptr %1, ptr %8, align 8
  store ptr %2, ptr %9, align 8
  store ptr %3, ptr %10, align 8
  store i32 %4, ptr %11, align 4
  %23 = load ptr, ptr %7, align 8
  store ptr %23, ptr %12, align 8
  %24 = load ptr, ptr %10, align 8
  store ptr %24, ptr %13, align 8
  %25 = load ptr, ptr %12, align 8
  %26 = icmp ne ptr %25, null
  br i1 %26, label %27, label %30

27:                                               ; preds = %5
  %28 = load ptr, ptr %13, align 8
  %29 = icmp ne ptr %28, null
  br i1 %29, label %31, label %30

30:                                               ; preds = %27, %5
  store i32 0, ptr %6, align 4
  br label %114

31:                                               ; preds = %27
  %32 = load i32, ptr getelementptr inbounds (%struct.recent_settings_tag, ptr @recent, i32 0, i32 47), align 8
  %33 = icmp ne i32 %32, 0
  br i1 %33, label %39, label %34

34:                                               ; preds = %31
  %35 = load ptr, ptr %13, align 8
  %36 = getelementptr inbounds %struct.rlc_3gpp_tap_info, ptr %35, i32 0, i32 10
  %37 = load i8, ptr %36, align 8
  %38 = icmp ne i8 %37, 0
  br i1 %38, label %47, label %39

39:                                               ; preds = %34, %31
  %40 = load i32, ptr getelementptr inbounds (%struct.recent_settings_tag, ptr @recent, i32 0, i32 47), align 8
  %41 = icmp ne i32 %40, 0
  br i1 %41, label %42, label %48

42:                                               ; preds = %39
  %43 = load ptr, ptr %13, align 8
  %44 = getelementptr inbounds %struct.rlc_3gpp_tap_info, ptr %43, i32 0, i32 10
  %45 = load i8, ptr %44, align 8
  %46 = icmp ne i8 %45, 0
  br i1 %46, label %48, label %47

47:                                               ; preds = %42, %34
  store i32 0, ptr %6, align 4
  br label %114

48:                                               ; preds = %42, %39
  %49 = load ptr, ptr %12, align 8
  call void @_ZN22LteRlcStatisticsDialog13incFrameCountEv(ptr noundef nonnull align 8 dereferenceable(300) %49)
  store ptr null, ptr %14, align 8
  store i32 0, ptr %15, align 4
  br label %50

50:                                               ; preds = %73, %48
  %51 = load i32, ptr %15, align 4
  %52 = load ptr, ptr %12, align 8
  %53 = call noundef ptr @_ZN18TapParameterDialog15statsTreeWidgetEv(ptr noundef nonnull align 8 dereferenceable(224) %52)
  %54 = call noundef i32 @_ZNK11QTreeWidget17topLevelItemCountEv(ptr noundef nonnull align 8 dereferenceable(40) %53)
  %55 = icmp slt i32 %51, %54
  br i1 %55, label %56, label %76

56:                                               ; preds = %50
  %57 = load ptr, ptr %12, align 8
  %58 = call noundef ptr @_ZN18TapParameterDialog15statsTreeWidgetEv(ptr noundef nonnull align 8 dereferenceable(224) %57)
  %59 = load i32, ptr %15, align 4
  %60 = call noundef ptr @_ZNK11QTreeWidget12topLevelItemEi(ptr noundef nonnull align 8 dereferenceable(40) %58, i32 noundef %59)
  store ptr %60, ptr %16, align 8
  %61 = load ptr, ptr %16, align 8
  %62 = call noundef i32 @_ZNK15QTreeWidgetItem4typeEv(ptr noundef nonnull align 8 dereferenceable(92) %61)
  %63 = icmp ne i32 %62, 1000
  br i1 %63, label %64, label %65

64:                                               ; preds = %56
  br label %73

65:                                               ; preds = %56
  %66 = load ptr, ptr %16, align 8
  store ptr %66, ptr %17, align 8
  %67 = load ptr, ptr %17, align 8
  %68 = load ptr, ptr %13, align 8
  %69 = call noundef zeroext i1 @_ZN19RlcUeTreeWidgetItem7isMatchEPK17rlc_3gpp_tap_info(ptr noundef nonnull align 8 dereferenceable(496) %67, ptr noundef %68)
  br i1 %69, label %70, label %72

70:                                               ; preds = %65
  %71 = load ptr, ptr %17, align 8
  store ptr %71, ptr %14, align 8
  br label %76

72:                                               ; preds = %65
  br label %73

73:                                               ; preds = %72, %64
  %74 = load i32, ptr %15, align 4
  %75 = add i32 %74, 1
  store i32 %75, ptr %15, align 4
  br label %50, !llvm.loop !6

76:                                               ; preds = %70, %50
  %77 = load ptr, ptr %14, align 8
  %78 = icmp ne ptr %77, null
  br i1 %78, label %111, label %79

79:                                               ; preds = %76
  %80 = call noalias noundef nonnull ptr @_Znwm(i64 noundef 496) #17
  %81 = load ptr, ptr %12, align 8
  %82 = invoke noundef ptr @_ZN18TapParameterDialog15statsTreeWidgetEv(ptr noundef nonnull align 8 dereferenceable(224) %81)
          to label %83 unwind label %106

83:                                               ; preds = %79
  %84 = load ptr, ptr %13, align 8
  invoke void @_ZN19RlcUeTreeWidgetItemC2EP11QTreeWidgetPK17rlc_3gpp_tap_info(ptr noundef nonnull align 8 dereferenceable(496) %80, ptr noundef %82, ptr noundef %84)
          to label %85 unwind label %106

85:                                               ; preds = %83
  store ptr %80, ptr %14, align 8
  store i32 0, ptr %20, align 4
  br label %86

86:                                               ; preds = %103, %85
  %87 = load i32, ptr %20, align 4
  %88 = load ptr, ptr %12, align 8
  %89 = call noundef ptr @_ZN18TapParameterDialog15statsTreeWidgetEv(ptr noundef nonnull align 8 dereferenceable(224) %88)
  %90 = call noundef i32 @_ZNK11QTreeWidget11columnCountEv(ptr noundef nonnull align 8 dereferenceable(40) %89)
  %91 = icmp slt i32 %87, %90
  br i1 %91, label %92, label %110

92:                                               ; preds = %86
  %93 = load ptr, ptr %14, align 8
  %94 = load i32, ptr %20, align 4
  %95 = load ptr, ptr %12, align 8
  %96 = call noundef ptr @_ZN18TapParameterDialog15statsTreeWidgetEv(ptr noundef nonnull align 8 dereferenceable(224) %95)
  %97 = call noundef ptr @_ZNK11QTreeWidget10headerItemEv(ptr noundef nonnull align 8 dereferenceable(40) %96)
  %98 = load i32, ptr %20, align 4
  %99 = call noundef i32 @_ZNK15QTreeWidgetItem13textAlignmentEi(ptr noundef nonnull align 8 dereferenceable(92) %97, i32 noundef %98)
  call void @_ZN5QFlagC2Ei(ptr noundef nonnull align 4 dereferenceable(4) %22, i32 noundef %99) #3
  %100 = getelementptr inbounds %class.QFlag, ptr %22, i32 0, i32 0
  %101 = load i32, ptr %100, align 4
  call void @_ZN6QFlagsIN2Qt13AlignmentFlagEEC2E5QFlag(ptr noundef nonnull align 4 dereferenceable(4) %21, i32 %101) #3
  %102 = call noundef i32 @_ZNK6QFlagsIN2Qt13AlignmentFlagEEcvjEv(ptr noundef nonnull align 4 dereferenceable(4) %21) #3
  call void @_ZN15QTreeWidgetItem16setTextAlignmentEii(ptr noundef nonnull align 8 dereferenceable(92) %93, i32 noundef %94, i32 noundef %102)
  br label %103

103:                                              ; preds = %92
  %104 = load i32, ptr %20, align 4
  %105 = add i32 %104, 1
  store i32 %105, ptr %20, align 4
  br label %86, !llvm.loop !7

106:                                              ; preds = %83, %79
  %107 = landingpad { ptr, i32 }
          cleanup
  %108 = extractvalue { ptr, i32 } %107, 0
  store ptr %108, ptr %18, align 8
  %109 = extractvalue { ptr, i32 } %107, 1
  store i32 %109, ptr %19, align 4
  call void @_ZdlPv(ptr noundef %80) #18
  br label %116

110:                                              ; preds = %86
  br label %111

111:                                              ; preds = %110, %76
  %112 = load ptr, ptr %14, align 8
  %113 = load ptr, ptr %13, align 8
  call void @_ZN19RlcUeTreeWidgetItem6updateEPK17rlc_3gpp_tap_info(ptr noundef nonnull align 8 dereferenceable(496) %112, ptr noundef %113)
  store i32 1, ptr %6, align 4
  br label %114

114:                                              ; preds = %111, %47, %30
  %115 = load i32, ptr %6, align 4
  ret i32 %115

116:                                              ; preds = %106
  %117 = load ptr, ptr %18, align 8
  %118 = load i32, ptr %19, align 4
  %119 = insertvalue { ptr, i32 } poison, ptr %117, 0
  %120 = insertvalue { ptr, i32 } %119, i32 %118, 1
  resume { ptr, i32 } %120
}