; Function Attrs: mustprogress uwtable
define noundef i32 @_ZN22LteRlcStatisticsDialog9tapPacketEPvP12_packet_infoP12epan_dissectPKvj(ptr noundef %0, ptr nocapture readnone %1, ptr nocapture readnone %2, ptr noundef %3, i32 %4) #2 align 2 personality ptr @__gxx_personality_v0 {
  %6 = alloca %class.QVariant, align 8
  %7 = alloca %class.QVariant, align 8
  %8 = icmp ne ptr %0, null
  %9 = icmp ne ptr %3, null
  %or.cond = and i1 %8, %9
  br i1 %or.cond, label %10, label %67

10:                                               ; preds = %5
  %11 = load i32, ptr getelementptr inbounds (%struct.recent_settings_tag, ptr @recent, i64 0, i32 47), align 8
  %.not = icmp eq i32 %11, 0
  %12 = getelementptr inbounds i8, ptr %3, i64 32
  %13 = load i8, ptr %12, align 8
  %.not37 = icmp eq i8 %13, 0
  br i1 %.not, label %14, label %15

14:                                               ; preds = %10
  br i1 %.not37, label %.thread, label %67

15:                                               ; preds = %10
  br i1 %.not37, label %67, label %.thread

.thread:                                          ; preds = %14, %15
  %16 = getelementptr inbounds i8, ptr %0, i64 296
  %17 = load i32, ptr %16, align 8
  %18 = add i32 %17, 1
  store i32 %18, ptr %16, align 8
  %19 = tail call noundef ptr @_ZN18TapParameterDialog15statsTreeWidgetEv(ptr noundef nonnull align 8 dereferenceable(224) %0)
  %20 = tail call noundef i32 @_ZNK11QTreeWidget17topLevelItemCountEv(ptr noundef nonnull align 8 dereferenceable(40) %19)
  %21 = icmp sgt i32 %20, 0
  br i1 %21, label %.lr.ph, label %._crit_edge

.lr.ph:                                           ; preds = %.thread
  %22 = getelementptr inbounds i8, ptr %3, i64 4
  br label %23

23:                                               ; preds = %.lr.ph, %_ZN19RlcUeTreeWidgetItem7isMatchEPK17rlc_3gpp_tap_info.exit.thread
  %.03447 = phi i32 [ 0, %.lr.ph ], [ %38, %_ZN19RlcUeTreeWidgetItem7isMatchEPK17rlc_3gpp_tap_info.exit.thread ]
  %24 = tail call noundef ptr @_ZN18TapParameterDialog15statsTreeWidgetEv(ptr noundef nonnull align 8 dereferenceable(224) %0)
  %25 = tail call noundef ptr @_ZNK11QTreeWidget12topLevelItemEi(ptr noundef nonnull align 8 dereferenceable(40) %24, i32 noundef %.03447)
  %26 = getelementptr inbounds i8, ptr %25, i64 8
  %27 = load i32, ptr %26, align 8
  %.not40 = icmp eq i32 %27, 1000
  br i1 %.not40, label %28, label %_ZN19RlcUeTreeWidgetItem7isMatchEPK17rlc_3gpp_tap_info.exit.thread

28:                                               ; preds = %23
  %29 = getelementptr inbounds i8, ptr %25, i64 92
  %30 = load i8, ptr %29, align 4
  %31 = load i8, ptr %3, align 8
  %32 = icmp eq i8 %30, %31
  br i1 %32, label %_ZN19RlcUeTreeWidgetItem7isMatchEPK17rlc_3gpp_tap_info.exit, label %_ZN19RlcUeTreeWidgetItem7isMatchEPK17rlc_3gpp_tap_info.exit.thread

_ZN19RlcUeTreeWidgetItem7isMatchEPK17rlc_3gpp_tap_info.exit: ; preds = %28
  %33 = getelementptr inbounds i8, ptr %25, i64 96
  %34 = load i32, ptr %33, align 8
  %35 = load i16, ptr %22, align 4
  %36 = zext i16 %35 to i32
  %37 = icmp eq i32 %34, %36
  br i1 %37, label %.loopexit, label %_ZN19RlcUeTreeWidgetItem7isMatchEPK17rlc_3gpp_tap_info.exit.thread

_ZN19RlcUeTreeWidgetItem7isMatchEPK17rlc_3gpp_tap_info.exit.thread: ; preds = %28, %_ZN19RlcUeTreeWidgetItem7isMatchEPK17rlc_3gpp_tap_info.exit, %23
  %38 = add nuw nsw i32 %.03447, 1
  %39 = tail call noundef ptr @_ZN18TapParameterDialog15statsTreeWidgetEv(ptr noundef nonnull align 8 dereferenceable(224) %0)
  %40 = tail call noundef i32 @_ZNK11QTreeWidget17topLevelItemCountEv(ptr noundef nonnull align 8 dereferenceable(40) %39)
  %41 = icmp slt i32 %38, %40
  br i1 %41, label %23, label %._crit_edge, !llvm.loop !10

._crit_edge:                                      ; preds = %_ZN19RlcUeTreeWidgetItem7isMatchEPK17rlc_3gpp_tap_info.exit.thread, %.thread
  %42 = tail call noalias noundef nonnull dereferenceable(496) ptr @_Znwm(i64 noundef 496) #20
  %43 = invoke noundef ptr @_ZN18TapParameterDialog15statsTreeWidgetEv(ptr noundef nonnull align 8 dereferenceable(224) %0)
          to label %44 unwind label %65

44:                                               ; preds = %._crit_edge
  invoke void @_ZN19RlcUeTreeWidgetItemC2EP11QTreeWidgetPK17rlc_3gpp_tap_info(ptr noundef nonnull align 8 dereferenceable(496) %42, ptr noundef %43, ptr noundef nonnull %3)
          to label %.preheader unwind label %65

.preheader:                                       ; preds = %44
  %45 = tail call noundef ptr @_ZN18TapParameterDialog15statsTreeWidgetEv(ptr noundef nonnull align 8 dereferenceable(224) %0)
  %46 = tail call noundef i32 @_ZNK11QTreeWidget11columnCountEv(ptr noundef nonnull align 8 dereferenceable(40) %45)
  %47 = icmp sgt i32 %46, 0
  br i1 %47, label %.lr.ph49, label %.loopexit

.lr.ph49:                                         ; preds = %.preheader, %_ZN15QTreeWidgetItem16setTextAlignmentEii.exit
  %.048 = phi i32 [ %61, %_ZN15QTreeWidgetItem16setTextAlignmentEii.exit ], [ 0, %.preheader ]
  %48 = call noundef ptr @_ZN18TapParameterDialog15statsTreeWidgetEv(ptr noundef nonnull align 8 dereferenceable(224) %0)
  %49 = call noundef ptr @_ZNK11QTreeWidget10headerItemEv(ptr noundef nonnull align 8 dereferenceable(40) %48)
  call void @llvm.lifetime.start.p0(i64 32, ptr nonnull %7)
  %50 = load ptr, ptr %49, align 8
  %51 = getelementptr inbounds i8, ptr %50, i64 24
  %52 = load ptr, ptr %51, align 8
  call void %52(ptr dead_on_unwind nonnull writable sret(%class.QVariant) align 8 %7, ptr noundef nonnull align 8 dereferenceable(92) %49, i32 noundef %.048, i32 noundef 7)
  %53 = invoke noundef i32 @_ZNK8QVariant5toIntEPb(ptr noundef nonnull align 8 dereferenceable(32) %7, ptr noundef null)
          to label %_ZNK15QTreeWidgetItem13textAlignmentEi.exit unwind label %54

common.resume:                                    ; preds = %65, %59, %54
  %common.resume.op = phi { ptr, i32 } [ %55, %54 ], [ %60, %59 ], [ %66, %65 ]
  resume { ptr, i32 } %common.resume.op

54:                                               ; preds = %.lr.ph49
  %55 = landingpad { ptr, i32 }
          cleanup
  call void @_ZN8QVariantD1Ev(ptr noundef nonnull align 8 dereferenceable(32) %7) #19
  br label %common.resume

_ZNK15QTreeWidgetItem13textAlignmentEi.exit:      ; preds = %.lr.ph49
  call void @_ZN8QVariantD1Ev(ptr noundef nonnull align 8 dereferenceable(32) %7) #19
  call void @llvm.lifetime.end.p0(i64 32, ptr nonnull %7)
  call void @llvm.lifetime.start.p0(i64 32, ptr nonnull %6)
  call void @_ZN8QVariantC1Ei(ptr noundef nonnull align 8 dereferenceable(32) %6, i32 noundef %53)
  %56 = load ptr, ptr %42, align 8
  %57 = getelementptr inbounds i8, ptr %56, i64 32
  %58 = load ptr, ptr %57, align 8
  invoke void %58(ptr noundef nonnull align 8 dereferenceable(92) %42, i32 noundef %.048, i32 noundef 7, ptr noundef nonnull align 8 dereferenceable(32) %6)
          to label %_ZN15QTreeWidgetItem16setTextAlignmentEii.exit unwind label %59

59:                                               ; preds = %_ZNK15QTreeWidgetItem13textAlignmentEi.exit
  %60 = landingpad { ptr, i32 }
          cleanup
  call void @_ZN8QVariantD1Ev(ptr noundef nonnull align 8 dereferenceable(32) %6) #19
  br label %common.resume

_ZN15QTreeWidgetItem16setTextAlignmentEii.exit:   ; preds = %_ZNK15QTreeWidgetItem13textAlignmentEi.exit
  call void @_ZN8QVariantD1Ev(ptr noundef nonnull align 8 dereferenceable(32) %6) #19
  call void @llvm.lifetime.end.p0(i64 32, ptr nonnull %6)
  %61 = add nuw nsw i32 %.048, 1
  %62 = call noundef ptr @_ZN18TapParameterDialog15statsTreeWidgetEv(ptr noundef nonnull align 8 dereferenceable(224) %0)
  %63 = call noundef i32 @_ZNK11QTreeWidget11columnCountEv(ptr noundef nonnull align 8 dereferenceable(40) %62)
  %64 = icmp slt i32 %61, %63
  br i1 %64, label %.lr.ph49, label %.loopexit, !llvm.loop !11

65:                                               ; preds = %44, %._crit_edge
  %66 = landingpad { ptr, i32 }
          cleanup
  tail call void @_ZdlPv(ptr noundef nonnull %42) #21
  br label %common.resume

.loopexit:                                        ; preds = %_ZN19RlcUeTreeWidgetItem7isMatchEPK17rlc_3gpp_tap_info.exit, %_ZN15QTreeWidgetItem16setTextAlignmentEii.exit, %.preheader
  %.1 = phi ptr [ %42, %.preheader ], [ %42, %_ZN15QTreeWidgetItem16setTextAlignmentEii.exit ], [ %25, %_ZN19RlcUeTreeWidgetItem7isMatchEPK17rlc_3gpp_tap_info.exit ]
  call void @_ZN19RlcUeTreeWidgetItem6updateEPK17rlc_3gpp_tap_info(ptr noundef nonnull align 8 dereferenceable(496) %.1, ptr noundef nonnull %3)
  br label %67

67:                                               ; preds = %14, %15, %5, %.loopexit
  %.032 = phi i32 [ 1, %.loopexit ], [ 0, %5 ], [ 0, %15 ], [ 0, %14 ]
  ret i32 %.032
}